;--------------------------------------------------------
; File Created by SDCC : free open source ANSI-C Compiler
; Version 4.1.6 #12539 (MINGW32)
;--------------------------------------------------------
	.module main
	.optsdcc -mgbz80
	
;--------------------------------------------------------
; Public variables in this module
;--------------------------------------------------------
	.globl _main
	.globl _set_sprite_data
	.globl _set_bkg_tiles
	.globl _set_bkg_data
	.globl _delay
	.globl _MapTeste3
	.globl _MapTeste2
	.globl _MapTeste
	.globl _BackTeste2
	.globl _BackTest
	.globl _Parede
	.globl _Bola
	.globl _Barra
;--------------------------------------------------------
; special function registers
;--------------------------------------------------------
;--------------------------------------------------------
; ram data
;--------------------------------------------------------
	.area _DATA
;--------------------------------------------------------
; ram data
;--------------------------------------------------------
	.area _INITIALIZED
_Barra::
	.ds 16
_Bola::
	.ds 16
_Parede::
	.ds 16
_BackTest::
	.ds 48
_BackTeste2::
	.ds 336
_MapTeste::
	.ds 360
_MapTeste2::
	.ds 360
_MapTeste3::
	.ds 360
;--------------------------------------------------------
; absolute external ram data
;--------------------------------------------------------
	.area _DABS (ABS)
;--------------------------------------------------------
; global & static initialisations
;--------------------------------------------------------
	.area _HOME
	.area _GSINIT
	.area _GSFINAL
	.area _GSINIT
;--------------------------------------------------------
; Home
;--------------------------------------------------------
	.area _HOME
	.area _HOME
;--------------------------------------------------------
; code
;--------------------------------------------------------
	.area _CODE
;..\src\main.c:12: void main(){
;	---------------------------------
; Function main
; ---------------------------------
_main::
;..\src\main.c:15: SPRITES_8x8;
	ldh	a, (_LCDC_REG + 0)
	and	a, #0xfb
	ldh	(_LCDC_REG + 0), a
;..\src\main.c:26: set_sprite_data(0, 1, Barra);
	ld	de, #_Barra
	push	de
	xor	a, a
	inc	a
	push	af
	call	_set_sprite_data
	add	sp, #4
;C:/Users/Glenio Lobo/Desktop/Faculdade/Interface Hardware Software/pong-souls/gbdk/include/gb/gb.h:1326: shadow_OAM[nb].tile=tile;
	ld	hl, #(_shadow_OAM + 14)
	ld	(hl), #0x00
;C:/Users/Glenio Lobo/Desktop/Faculdade/Interface Hardware Software/pong-souls/gbdk/include/gb/gb.h:1399: OAM_item_t * itm = &shadow_OAM[nb];
	ld	bc, #_shadow_OAM+12
;C:/Users/Glenio Lobo/Desktop/Faculdade/Interface Hardware Software/pong-souls/gbdk/include/gb/gb.h:1400: itm->y=y, itm->x=x;
	xor	a, a
	ld	(bc), a
	inc	bc
	xor	a, a
	ld	(bc), a
;..\src\main.c:30: set_sprite_data(1, 1, Bola);
	ld	de, #_Bola
	push	de
	ld	hl, #0x101
	push	hl
	call	_set_sprite_data
	add	sp, #4
;C:/Users/Glenio Lobo/Desktop/Faculdade/Interface Hardware Software/pong-souls/gbdk/include/gb/gb.h:1326: shadow_OAM[nb].tile=tile;
	ld	hl, #(_shadow_OAM + 6)
	ld	(hl), #0x01
;C:/Users/Glenio Lobo/Desktop/Faculdade/Interface Hardware Software/pong-souls/gbdk/include/gb/gb.h:1399: OAM_item_t * itm = &shadow_OAM[nb];
	ld	hl, #(_shadow_OAM + 4)
;C:/Users/Glenio Lobo/Desktop/Faculdade/Interface Hardware Software/pong-souls/gbdk/include/gb/gb.h:1400: itm->y=y, itm->x=x;
	ld	a, #0x10
	ld	(hl+), a
	ld	(hl), #0x58
;..\src\main.c:34: set_sprite_data(2, 1, Parede);
	ld	de, #_Parede
	push	de
	ld	hl, #0x102
	push	hl
	call	_set_sprite_data
	add	sp, #4
;C:/Users/Glenio Lobo/Desktop/Faculdade/Interface Hardware Software/pong-souls/gbdk/include/gb/gb.h:1326: shadow_OAM[nb].tile=tile;
	ld	hl, #(_shadow_OAM + 10)
	ld	(hl), #0x02
;C:/Users/Glenio Lobo/Desktop/Faculdade/Interface Hardware Software/pong-souls/gbdk/include/gb/gb.h:1399: OAM_item_t * itm = &shadow_OAM[nb];
	ld	hl, #(_shadow_OAM + 8)
;C:/Users/Glenio Lobo/Desktop/Faculdade/Interface Hardware Software/pong-souls/gbdk/include/gb/gb.h:1400: itm->y=y, itm->x=x;
	ld	a, #0x98
	ld	(hl+), a
	ld	(hl), #0x50
;..\src\main.c:38: SHOW_SPRITES;
	ldh	a, (_LCDC_REG + 0)
	or	a, #0x02
	ldh	(_LCDC_REG + 0), a
;..\src\main.c:40: set_bkg_data(0, 21, BackTeste2); // Load os sprites que comp천em o background na mem처ria
	ld	de, #_BackTeste2
	push	de
	ld	hl, #0x1500
	push	hl
	call	_set_bkg_data
	add	sp, #4
;..\src\main.c:41: set_bkg_tiles(0, 0, 20, 18, MapTeste3);
	ld	de, #_MapTeste3
	push	de
	ld	hl, #0x1214
	push	hl
	xor	a, a
	rrca
	push	af
	call	_set_bkg_tiles
	add	sp, #6
;..\src\main.c:43: SHOW_BKG;
	ldh	a, (_LCDC_REG + 0)
	or	a, #0x01
	ldh	(_LCDC_REG + 0), a
;..\src\main.c:44: DISPLAY_ON;
	ldh	a, (_LCDC_REG + 0)
	or	a, #0x80
	ldh	(_LCDC_REG + 0), a
;..\src\main.c:46: delay(100);
	ld	de, #0x0064
	push	de
	call	_delay
	pop	hl
;..\src\main.c:47: set_bkg_data(0, 3, BackTest); // Load os sprites que comp천em o background na mem처ria
	ld	de, #_BackTest
	push	de
	ld	hl, #0x300
	push	hl
	call	_set_bkg_data
	add	sp, #4
;..\src\main.c:48: set_bkg_tiles(0, 0, 20, 18, MapTeste2);
	ld	de, #_MapTeste2
	push	de
	ld	hl, #0x1214
	push	hl
	xor	a, a
	rrca
	push	af
	call	_set_bkg_tiles
	add	sp, #6
;..\src\main.c:72: }
	ret
	.area _CODE
	.area _INITIALIZER
__xinit__Barra:
	.db #0x18	; 24
	.db #0x1c	; 28
	.db #0x18	; 24
	.db #0x1c	; 28
	.db #0x18	; 24
	.db #0x1c	; 28
	.db #0x18	; 24
	.db #0x1c	; 28
	.db #0x18	; 24
	.db #0x1c	; 28
	.db #0x18	; 24
	.db #0x1c	; 28
	.db #0x18	; 24
	.db #0x1c	; 28
	.db #0x18	; 24
	.db #0x1c	; 28
__xinit__Bola:
	.db #0x00	; 0
	.db #0x00	; 0
	.db #0x3c	; 60
	.db #0x3c	; 60
	.db #0x7e	; 126
	.db #0x7e	; 126
	.db #0x7e	; 126
	.db #0x7e	; 126
	.db #0x7e	; 126
	.db #0x7e	; 126
	.db #0x7e	; 126
	.db #0x7e	; 126
	.db #0x3c	; 60
	.db #0x3c	; 60
	.db #0x00	; 0
	.db #0x00	; 0
__xinit__Parede:
	.db #0x08	; 8
	.db #0x08	; 8
	.db #0x08	; 8
	.db #0x08	; 8
	.db #0x08	; 8
	.db #0x08	; 8
	.db #0x08	; 8
	.db #0x08	; 8
	.db #0x08	; 8
	.db #0x08	; 8
	.db #0x08	; 8
	.db #0x08	; 8
	.db #0xff	; 255
	.db #0xff	; 255
	.db #0x00	; 0
	.db #0x00	; 0
__xinit__BackTest:
	.db #0x00	; 0
	.db #0x00	; 0
	.db #0x00	; 0
	.db #0x00	; 0
	.db #0x00	; 0
	.db #0x00	; 0
	.db #0x00	; 0
	.db #0x00	; 0
	.db #0x00	; 0
	.db #0x00	; 0
	.db #0x00	; 0
	.db #0x00	; 0
	.db #0x00	; 0
	.db #0x00	; 0
	.db #0x00	; 0
	.db #0x00	; 0
	.db #0xff	; 255
	.db #0xff	; 255
	.db #0x01	; 1
	.db #0x01	; 1
	.db #0x01	; 1
	.db #0x01	; 1
	.db #0x01	; 1
	.db #0x01	; 1
	.db #0xff	; 255
	.db #0xff	; 255
	.db #0x10	; 16
	.db #0x10	; 16
	.db #0x10	; 16
	.db #0x10	; 16
	.db #0x10	; 16
	.db #0x10	; 16
	.db #0x55	; 85	'U'
	.db #0x00	; 0
	.db #0xaa	; 170
	.db #0x00	; 0
	.db #0x55	; 85	'U'
	.db #0x00	; 0
	.db #0xaa	; 170
	.db #0x00	; 0
	.db #0x55	; 85	'U'
	.db #0x00	; 0
	.db #0xaa	; 170
	.db #0x00	; 0
	.db #0x55	; 85	'U'
	.db #0x00	; 0
	.db #0xaa	; 170
	.db #0x00	; 0
__xinit__BackTeste2:
	.db #0x00	; 0
	.db #0x00	; 0
	.db #0x00	; 0
	.db #0x00	; 0
	.db #0x00	; 0
	.db #0x00	; 0
	.db #0x00	; 0
	.db #0x00	; 0
	.db #0x00	; 0
	.db #0x00	; 0
	.db #0x00	; 0
	.db #0x00	; 0
	.db #0x00	; 0
	.db #0x00	; 0
	.db #0x00	; 0
	.db #0x00	; 0
	.db #0xff	; 255
	.db #0xff	; 255
	.db #0x11	; 17
	.db #0x11	; 17
	.db #0x39	; 57	'9'
	.db #0x39	; 57	'9'
	.db #0x29	; 41
	.db #0x29	; 41
	.db #0x6d	; 109	'm'
	.db #0x6d	; 109	'm'
	.db #0x55	; 85	'U'
	.db #0x55	; 85	'U'
	.db #0xd7	; 215
	.db #0xd7	; 215
	.db #0x93	; 147
	.db #0x93	; 147
	.db #0xff	; 255
	.db #0xff	; 255
	.db #0x88	; 136
	.db #0x88	; 136
	.db #0x9c	; 156
	.db #0x9c	; 156
	.db #0x94	; 148
	.db #0x94	; 148
	.db #0xb6	; 182
	.db #0xb6	; 182
	.db #0xaa	; 170
	.db #0xaa	; 170
	.db #0xeb	; 235
	.db #0xeb	; 235
	.db #0xc9	; 201
	.db #0xc9	; 201
	.db #0xff	; 255
	.db #0xff	; 255
	.db #0xdb	; 219
	.db #0xdb	; 219
	.db #0xdb	; 219
	.db #0xdb	; 219
	.db #0x66	; 102	'f'
	.db #0x66	; 102	'f'
	.db #0x24	; 36
	.db #0x24	; 36
	.db #0x3c	; 60
	.db #0x3c	; 60
	.db #0x18	; 24
	.db #0x18	; 24
	.db #0xff	; 255
	.db #0xff	; 255
	.db #0xff	; 255
	.db #0xff	; 255
	.db #0x18	; 24
	.db #0x18	; 24
	.db #0x3c	; 60
	.db #0x3c	; 60
	.db #0x24	; 36
	.db #0x24	; 36
	.db #0x66	; 102	'f'
	.db #0x66	; 102	'f'
	.db #0xdb	; 219
	.db #0xdb	; 219
	.db #0xdb	; 219
	.db #0xdb	; 219
	.db #0xff	; 255
	.db #0xff	; 255
	.db #0xc9	; 201
	.db #0xc9	; 201
	.db #0xeb	; 235
	.db #0xeb	; 235
	.db #0xaa	; 170
	.db #0xaa	; 170
	.db #0xb6	; 182
	.db #0xb6	; 182
	.db #0x94	; 148
	.db #0x94	; 148
	.db #0x9c	; 156
	.db #0x9c	; 156
	.db #0x88	; 136
	.db #0x88	; 136
	.db #0xff	; 255
	.db #0xff	; 255
	.db #0x93	; 147
	.db #0x93	; 147
	.db #0xd7	; 215
	.db #0xd7	; 215
	.db #0x55	; 85	'U'
	.db #0x55	; 85	'U'
	.db #0x6d	; 109	'm'
	.db #0x6d	; 109	'm'
	.db #0x29	; 41
	.db #0x29	; 41
	.db #0x39	; 57	'9'
	.db #0x39	; 57	'9'
	.db #0x11	; 17
	.db #0x11	; 17
	.db #0xff	; 255
	.db #0xff	; 255
	.db #0xe1	; 225
	.db #0xe1	; 225
	.db #0xf1	; 241
	.db #0xf1	; 241
	.db #0x9d	; 157
	.db #0x9d	; 157
	.db #0xe7	; 231
	.db #0xe7	; 231
	.db #0xe7	; 231
	.db #0xe7	; 231
	.db #0x9d	; 157
	.db #0x9d	; 157
	.db #0xf1	; 241
	.db #0xf1	; 241
	.db #0xe1	; 225
	.db #0xe1	; 225
	.db #0x87	; 135
	.db #0x87	; 135
	.db #0x8f	; 143
	.db #0x8f	; 143
	.db #0xb9	; 185
	.db #0xb9	; 185
	.db #0xe7	; 231
	.db #0xe7	; 231
	.db #0xe7	; 231
	.db #0xe7	; 231
	.db #0xb9	; 185
	.db #0xb9	; 185
	.db #0x8f	; 143
	.db #0x8f	; 143
	.db #0x87	; 135
	.db #0x87	; 135
	.db #0x00	; 0
	.db #0xff	; 255
	.db #0x00	; 0
	.db #0xff	; 255
	.db #0x00	; 0
	.db #0xff	; 255
	.db #0x00	; 0
	.db #0xff	; 255
	.db #0x00	; 0
	.db #0xff	; 255
	.db #0x00	; 0
	.db #0xff	; 255
	.db #0x00	; 0
	.db #0xff	; 255
	.db #0x00	; 0
	.db #0xff	; 255
	.db #0x7e	; 126
	.db #0x7e	; 126
	.db #0x42	; 66	'B'
	.db #0x42	; 66	'B'
	.db #0x42	; 66	'B'
	.db #0x42	; 66	'B'
	.db #0x42	; 66	'B'
	.db #0x42	; 66	'B'
	.db #0x7e	; 126
	.db #0x7e	; 126
	.db #0x40	; 64
	.db #0x40	; 64
	.db #0x40	; 64
	.db #0x40	; 64
	.db #0x40	; 64
	.db #0x40	; 64
	.db #0x7e	; 126
	.db #0x7e	; 126
	.db #0x42	; 66	'B'
	.db #0x42	; 66	'B'
	.db #0x42	; 66	'B'
	.db #0x42	; 66	'B'
	.db #0x42	; 66	'B'
	.db #0x42	; 66	'B'
	.db #0x42	; 66	'B'
	.db #0x42	; 66	'B'
	.db #0x42	; 66	'B'
	.db #0x42	; 66	'B'
	.db #0x42	; 66	'B'
	.db #0x42	; 66	'B'
	.db #0x7e	; 126
	.db #0x7e	; 126
	.db #0x62	; 98	'b'
	.db #0x62	; 98	'b'
	.db #0x62	; 98	'b'
	.db #0x62	; 98	'b'
	.db #0x72	; 114	'r'
	.db #0x72	; 114	'r'
	.db #0x7e	; 126
	.db #0x7e	; 126
	.db #0x5e	; 94
	.db #0x5e	; 94
	.db #0x4e	; 78	'N'
	.db #0x4e	; 78	'N'
	.db #0x42	; 66	'B'
	.db #0x42	; 66	'B'
	.db #0x42	; 66	'B'
	.db #0x42	; 66	'B'
	.db #0x7e	; 126
	.db #0x7e	; 126
	.db #0x40	; 64
	.db #0x40	; 64
	.db #0x40	; 64
	.db #0x40	; 64
	.db #0x40	; 64
	.db #0x40	; 64
	.db #0x7e	; 126
	.db #0x7e	; 126
	.db #0x02	; 2
	.db #0x02	; 2
	.db #0x02	; 2
	.db #0x02	; 2
	.db #0x7e	; 126
	.db #0x7e	; 126
	.db #0x7e	; 126
	.db #0x7e	; 126
	.db #0x40	; 64
	.db #0x40	; 64
	.db #0x40	; 64
	.db #0x40	; 64
	.db #0x40	; 64
	.db #0x40	; 64
	.db #0x5e	; 94
	.db #0x5e	; 94
	.db #0x42	; 66	'B'
	.db #0x42	; 66	'B'
	.db #0x42	; 66	'B'
	.db #0x42	; 66	'B'
	.db #0x7e	; 126
	.db #0x7e	; 126
	.db #0x40	; 64
	.db #0x40	; 64
	.db #0x40	; 64
	.db #0x40	; 64
	.db #0x40	; 64
	.db #0x40	; 64
	.db #0x40	; 64
	.db #0x40	; 64
	.db #0x40	; 64
	.db #0x40	; 64
	.db #0x40	; 64
	.db #0x40	; 64
	.db #0x40	; 64
	.db #0x40	; 64
	.db #0x7e	; 126
	.db #0x7e	; 126
	.db #0x42	; 66	'B'
	.db #0x42	; 66	'B'
	.db #0x42	; 66	'B'
	.db #0x42	; 66	'B'
	.db #0x42	; 66	'B'
	.db #0x42	; 66	'B'
	.db #0x42	; 66	'B'
	.db #0x42	; 66	'B'
	.db #0x42	; 66	'B'
	.db #0x42	; 66	'B'
	.db #0x42	; 66	'B'
	.db #0x42	; 66	'B'
	.db #0x42	; 66	'B'
	.db #0x42	; 66	'B'
	.db #0x7e	; 126
	.db #0x7e	; 126
	.db #0x7e	; 126
	.db #0x7e	; 126
	.db #0x42	; 66	'B'
	.db #0x42	; 66	'B'
	.db #0x42	; 66	'B'
	.db #0x42	; 66	'B'
	.db #0x7e	; 126
	.db #0x7e	; 126
	.db #0x70	; 112	'p'
	.db #0x70	; 112	'p'
	.db #0x5c	; 92
	.db #0x5c	; 92
	.db #0x4e	; 78	'N'
	.db #0x4e	; 78	'N'
	.db #0x42	; 66	'B'
	.db #0x42	; 66	'B'
	.db #0x7e	; 126
	.db #0x7e	; 126
	.db #0x40	; 64
	.db #0x40	; 64
	.db #0x40	; 64
	.db #0x40	; 64
	.db #0x7e	; 126
	.db #0x7e	; 126
	.db #0x40	; 64
	.db #0x40	; 64
	.db #0x40	; 64
	.db #0x40	; 64
	.db #0x40	; 64
	.db #0x40	; 64
	.db #0x7e	; 126
	.db #0x7e	; 126
	.db #0x7e	; 126
	.db #0x7e	; 126
	.db #0x7e	; 126
	.db #0x7e	; 126
	.db #0x18	; 24
	.db #0x18	; 24
	.db #0x18	; 24
	.db #0x18	; 24
	.db #0x18	; 24
	.db #0x18	; 24
	.db #0x18	; 24
	.db #0x18	; 24
	.db #0x18	; 24
	.db #0x18	; 24
	.db #0x18	; 24
	.db #0x18	; 24
	.db #0x7e	; 126
	.db #0x7e	; 126
	.db #0x42	; 66	'B'
	.db #0x42	; 66	'B'
	.db #0x42	; 66	'B'
	.db #0x42	; 66	'B'
	.db #0x7e	; 126
	.db #0x7e	; 126
	.db #0x42	; 66	'B'
	.db #0x42	; 66	'B'
	.db #0x42	; 66	'B'
	.db #0x42	; 66	'B'
	.db #0x42	; 66	'B'
	.db #0x42	; 66	'B'
	.db #0x42	; 66	'B'
	.db #0x42	; 66	'B'
__xinit__MapTeste:
	.db #0x02	; 2
	.db #0x02	; 2
	.db #0x02	; 2
	.db #0x02	; 2
	.db #0x02	; 2
	.db #0x02	; 2
	.db #0x02	; 2
	.db #0x02	; 2
	.db #0x02	; 2
	.db #0x02	; 2
	.db #0x02	; 2
	.db #0x02	; 2
	.db #0x02	; 2
	.db #0x02	; 2
	.db #0x02	; 2
	.db #0x02	; 2
	.db #0x02	; 2
	.db #0x02	; 2
	.db #0x02	; 2
	.db #0x02	; 2
	.db #0x02	; 2
	.db #0x02	; 2
	.db #0x02	; 2
	.db #0x02	; 2
	.db #0x02	; 2
	.db #0x02	; 2
	.db #0x02	; 2
	.db #0x02	; 2
	.db #0x02	; 2
	.db #0x02	; 2
	.db #0x02	; 2
	.db #0x02	; 2
	.db #0x02	; 2
	.db #0x01	; 1
	.db #0x02	; 2
	.db #0x02	; 2
	.db #0x02	; 2
	.db #0x02	; 2
	.db #0x02	; 2
	.db #0x02	; 2
	.db #0x02	; 2
	.db #0x02	; 2
	.db #0x02	; 2
	.db #0x02	; 2
	.db #0x02	; 2
	.db #0x02	; 2
	.db #0x02	; 2
	.db #0x02	; 2
	.db #0x02	; 2
	.db #0x02	; 2
	.db #0x02	; 2
	.db #0x01	; 1
	.db #0x01	; 1
	.db #0x01	; 1
	.db #0x01	; 1
	.db #0x02	; 2
	.db #0x02	; 2
	.db #0x02	; 2
	.db #0x02	; 2
	.db #0x02	; 2
	.db #0x02	; 2
	.db #0x02	; 2
	.db #0x02	; 2
	.db #0x02	; 2
	.db #0x02	; 2
	.db #0x02	; 2
	.db #0x02	; 2
	.db #0x02	; 2
	.db #0x02	; 2
	.db #0x02	; 2
	.db #0x01	; 1
	.db #0x01	; 1
	.db #0x01	; 1
	.db #0x01	; 1
	.db #0x01	; 1
	.db #0x01	; 1
	.db #0x02	; 2
	.db #0x02	; 2
	.db #0x02	; 2
	.db #0x02	; 2
	.db #0x02	; 2
	.db #0x02	; 2
	.db #0x02	; 2
	.db #0x02	; 2
	.db #0x02	; 2
	.db #0x02	; 2
	.db #0x02	; 2
	.db #0x02	; 2
	.db #0x02	; 2
	.db #0x01	; 1
	.db #0x01	; 1
	.db #0x01	; 1
	.db #0x01	; 1
	.db #0x01	; 1
	.db #0x01	; 1
	.db #0x01	; 1
	.db #0x01	; 1
	.db #0x02	; 2
	.db #0x02	; 2
	.db #0x02	; 2
	.db #0x02	; 2
	.db #0x02	; 2
	.db #0x02	; 2
	.db #0x02	; 2
	.db #0x02	; 2
	.db #0x02	; 2
	.db #0x02	; 2
	.db #0x02	; 2
	.db #0x01	; 1
	.db #0x01	; 1
	.db #0x01	; 1
	.db #0x01	; 1
	.db #0x01	; 1
	.db #0x01	; 1
	.db #0x01	; 1
	.db #0x01	; 1
	.db #0x01	; 1
	.db #0x01	; 1
	.db #0x02	; 2
	.db #0x02	; 2
	.db #0x02	; 2
	.db #0x02	; 2
	.db #0x02	; 2
	.db #0x02	; 2
	.db #0x02	; 2
	.db #0x02	; 2
	.db #0x02	; 2
	.db #0x02	; 2
	.db #0x01	; 1
	.db #0x01	; 1
	.db #0x01	; 1
	.db #0x01	; 1
	.db #0x01	; 1
	.db #0x01	; 1
	.db #0x01	; 1
	.db #0x01	; 1
	.db #0x01	; 1
	.db #0x01	; 1
	.db #0x01	; 1
	.db #0x02	; 2
	.db #0x02	; 2
	.db #0x02	; 2
	.db #0x02	; 2
	.db #0x02	; 2
	.db #0x02	; 2
	.db #0x02	; 2
	.db #0x01	; 1
	.db #0x01	; 1
	.db #0x01	; 1
	.db #0x01	; 1
	.db #0x01	; 1
	.db #0x01	; 1
	.db #0x01	; 1
	.db #0x01	; 1
	.db #0x01	; 1
	.db #0x01	; 1
	.db #0x01	; 1
	.db #0x01	; 1
	.db #0x01	; 1
	.db #0x01	; 1
	.db #0x02	; 2
	.db #0x02	; 2
	.db #0x02	; 2
	.db #0x02	; 2
	.db #0x02	; 2
	.db #0x02	; 2
	.db #0x01	; 1
	.db #0x01	; 1
	.db #0x01	; 1
	.db #0x01	; 1
	.db #0x01	; 1
	.db #0x01	; 1
	.db #0x01	; 1
	.db #0x01	; 1
	.db #0x01	; 1
	.db #0x01	; 1
	.db #0x01	; 1
	.db #0x01	; 1
	.db #0x01	; 1
	.db #0x01	; 1
	.db #0x02	; 2
	.db #0x02	; 2
	.db #0x02	; 2
	.db #0x02	; 2
	.db #0x02	; 2
	.db #0x02	; 2
	.db #0x02	; 2
	.db #0x01	; 1
	.db #0x02	; 2
	.db #0x02	; 2
	.db #0x01	; 1
	.db #0x01	; 1
	.db #0x01	; 1
	.db #0x01	; 1
	.db #0x01	; 1
	.db #0x01	; 1
	.db #0x02	; 2
	.db #0x02	; 2
	.db #0x01	; 1
	.db #0x02	; 2
	.db #0x02	; 2
	.db #0x02	; 2
	.db #0x02	; 2
	.db #0x02	; 2
	.db #0x02	; 2
	.db #0x02	; 2
	.db #0x02	; 2
	.db #0x01	; 1
	.db #0x02	; 2
	.db #0x02	; 2
	.db #0x01	; 1
	.db #0x01	; 1
	.db #0x01	; 1
	.db #0x01	; 1
	.db #0x01	; 1
	.db #0x01	; 1
	.db #0x02	; 2
	.db #0x02	; 2
	.db #0x01	; 1
	.db #0x02	; 2
	.db #0x02	; 2
	.db #0x02	; 2
	.db #0x02	; 2
	.db #0x02	; 2
	.db #0x02	; 2
	.db #0x02	; 2
	.db #0x02	; 2
	.db #0x01	; 1
	.db #0x02	; 2
	.db #0x02	; 2
	.db #0x01	; 1
	.db #0x01	; 1
	.db #0x01	; 1
	.db #0x01	; 1
	.db #0x01	; 1
	.db #0x01	; 1
	.db #0x02	; 2
	.db #0x02	; 2
	.db #0x01	; 1
	.db #0x02	; 2
	.db #0x02	; 2
	.db #0x02	; 2
	.db #0x02	; 2
	.db #0x01	; 1
	.db #0x01	; 1
	.db #0x01	; 1
	.db #0x01	; 1
	.db #0x01	; 1
	.db #0x01	; 1
	.db #0x01	; 1
	.db #0x01	; 1
	.db #0x01	; 1
	.db #0x01	; 1
	.db #0x01	; 1
	.db #0x01	; 1
	.db #0x01	; 1
	.db #0x01	; 1
	.db #0x01	; 1
	.db #0x01	; 1
	.db #0x01	; 1
	.db #0x02	; 2
	.db #0x02	; 2
	.db #0x02	; 2
	.db #0x01	; 1
	.db #0x01	; 1
	.db #0x01	; 1
	.db #0x01	; 1
	.db #0x01	; 1
	.db #0x01	; 1
	.db #0x01	; 1
	.db #0x01	; 1
	.db #0x01	; 1
	.db #0x01	; 1
	.db #0x01	; 1
	.db #0x01	; 1
	.db #0x01	; 1
	.db #0x01	; 1
	.db #0x01	; 1
	.db #0x01	; 1
	.db #0x01	; 1
	.db #0x02	; 2
	.db #0x02	; 2
	.db #0x02	; 2
	.db #0x01	; 1
	.db #0x01	; 1
	.db #0x01	; 1
	.db #0x01	; 1
	.db #0x01	; 1
	.db #0x01	; 1
	.db #0x01	; 1
	.db #0x01	; 1
	.db #0x01	; 1
	.db #0x01	; 1
	.db #0x01	; 1
	.db #0x01	; 1
	.db #0x01	; 1
	.db #0x01	; 1
	.db #0x01	; 1
	.db #0x01	; 1
	.db #0x01	; 1
	.db #0x02	; 2
	.db #0x02	; 2
	.db #0x01	; 1
	.db #0x01	; 1
	.db #0x01	; 1
	.db #0x01	; 1
	.db #0x01	; 1
	.db #0x01	; 1
	.db #0x01	; 1
	.db #0x01	; 1
	.db #0x01	; 1
	.db #0x01	; 1
	.db #0x01	; 1
	.db #0x01	; 1
	.db #0x01	; 1
	.db #0x01	; 1
	.db #0x01	; 1
	.db #0x01	; 1
	.db #0x01	; 1
	.db #0x01	; 1
	.db #0x02	; 2
	.db #0x02	; 2
	.db #0x01	; 1
	.db #0x01	; 1
	.db #0x01	; 1
	.db #0x01	; 1
	.db #0x01	; 1
	.db #0x01	; 1
	.db #0x01	; 1
	.db #0x01	; 1
	.db #0x01	; 1
	.db #0x01	; 1
	.db #0x01	; 1
	.db #0x01	; 1
	.db #0x01	; 1
	.db #0x01	; 1
	.db #0x01	; 1
	.db #0x01	; 1
	.db #0x01	; 1
	.db #0x01	; 1
	.db #0x02	; 2
	.db #0x02	; 2
	.db #0x01	; 1
	.db #0x01	; 1
	.db #0x01	; 1
	.db #0x01	; 1
	.db #0x01	; 1
	.db #0x01	; 1
	.db #0x01	; 1
	.db #0x01	; 1
	.db #0x01	; 1
	.db #0x01	; 1
	.db #0x01	; 1
	.db #0x01	; 1
	.db #0x01	; 1
	.db #0x01	; 1
	.db #0x01	; 1
	.db #0x01	; 1
	.db #0x01	; 1
	.db #0x01	; 1
__xinit__MapTeste2:
	.db #0x02	; 2
	.db #0x02	; 2
	.db #0x02	; 2
	.db #0x02	; 2
	.db #0x02	; 2
	.db #0x02	; 2
	.db #0x02	; 2
	.db #0x02	; 2
	.db #0x02	; 2
	.db #0x02	; 2
	.db #0x02	; 2
	.db #0x02	; 2
	.db #0x02	; 2
	.db #0x02	; 2
	.db #0x02	; 2
	.db #0x02	; 2
	.db #0x02	; 2
	.db #0x02	; 2
	.db #0x02	; 2
	.db #0x02	; 2
	.db #0x02	; 2
	.db #0x01	; 1
	.db #0x01	; 1
	.db #0x01	; 1
	.db #0x01	; 1
	.db #0x02	; 2
	.db #0x02	; 2
	.db #0x02	; 2
	.db #0x02	; 2
	.db #0x02	; 2
	.db #0x02	; 2
	.db #0x02	; 2
	.db #0x02	; 2
	.db #0x01	; 1
	.db #0x02	; 2
	.db #0x02	; 2
	.db #0x02	; 2
	.db #0x02	; 2
	.db #0x02	; 2
	.db #0x02	; 2
	.db #0x02	; 2
	.db #0x01	; 1
	.db #0x01	; 1
	.db #0x01	; 1
	.db #0x01	; 1
	.db #0x02	; 2
	.db #0x02	; 2
	.db #0x02	; 2
	.db #0x02	; 2
	.db #0x02	; 2
	.db #0x02	; 2
	.db #0x01	; 1
	.db #0x01	; 1
	.db #0x01	; 1
	.db #0x01	; 1
	.db #0x02	; 2
	.db #0x02	; 2
	.db #0x02	; 2
	.db #0x02	; 2
	.db #0x02	; 2
	.db #0x02	; 2
	.db #0x01	; 1
	.db #0x01	; 1
	.db #0x01	; 1
	.db #0x01	; 1
	.db #0x02	; 2
	.db #0x02	; 2
	.db #0x02	; 2
	.db #0x02	; 2
	.db #0x02	; 2
	.db #0x01	; 1
	.db #0x01	; 1
	.db #0x01	; 1
	.db #0x01	; 1
	.db #0x01	; 1
	.db #0x01	; 1
	.db #0x02	; 2
	.db #0x02	; 2
	.db #0x02	; 2
	.db #0x02	; 2
	.db #0x02	; 2
	.db #0x01	; 1
	.db #0x01	; 1
	.db #0x01	; 1
	.db #0x01	; 1
	.db #0x02	; 2
	.db #0x02	; 2
	.db #0x02	; 2
	.db #0x02	; 2
	.db #0x01	; 1
	.db #0x01	; 1
	.db #0x01	; 1
	.db #0x01	; 1
	.db #0x01	; 1
	.db #0x01	; 1
	.db #0x01	; 1
	.db #0x01	; 1
	.db #0x02	; 2
	.db #0x02	; 2
	.db #0x02	; 2
	.db #0x02	; 2
	.db #0x02	; 2
	.db #0x02	; 2
	.db #0x02	; 2
	.db #0x02	; 2
	.db #0x02	; 2
	.db #0x02	; 2
	.db #0x02	; 2
	.db #0x01	; 1
	.db #0x01	; 1
	.db #0x01	; 1
	.db #0x01	; 1
	.db #0x01	; 1
	.db #0x01	; 1
	.db #0x01	; 1
	.db #0x01	; 1
	.db #0x01	; 1
	.db #0x01	; 1
	.db #0x02	; 2
	.db #0x02	; 2
	.db #0x02	; 2
	.db #0x02	; 2
	.db #0x02	; 2
	.db #0x02	; 2
	.db #0x02	; 2
	.db #0x02	; 2
	.db #0x02	; 2
	.db #0x02	; 2
	.db #0x01	; 1
	.db #0x01	; 1
	.db #0x01	; 1
	.db #0x01	; 1
	.db #0x01	; 1
	.db #0x01	; 1
	.db #0x01	; 1
	.db #0x01	; 1
	.db #0x01	; 1
	.db #0x01	; 1
	.db #0x01	; 1
	.db #0x02	; 2
	.db #0x02	; 2
	.db #0x02	; 2
	.db #0x02	; 2
	.db #0x02	; 2
	.db #0x02	; 2
	.db #0x02	; 2
	.db #0x01	; 1
	.db #0x01	; 1
	.db #0x01	; 1
	.db #0x01	; 1
	.db #0x01	; 1
	.db #0x01	; 1
	.db #0x01	; 1
	.db #0x01	; 1
	.db #0x01	; 1
	.db #0x01	; 1
	.db #0x01	; 1
	.db #0x01	; 1
	.db #0x01	; 1
	.db #0x01	; 1
	.db #0x02	; 2
	.db #0x02	; 2
	.db #0x02	; 2
	.db #0x02	; 2
	.db #0x02	; 2
	.db #0x02	; 2
	.db #0x01	; 1
	.db #0x01	; 1
	.db #0x01	; 1
	.db #0x01	; 1
	.db #0x01	; 1
	.db #0x01	; 1
	.db #0x01	; 1
	.db #0x01	; 1
	.db #0x01	; 1
	.db #0x01	; 1
	.db #0x01	; 1
	.db #0x01	; 1
	.db #0x01	; 1
	.db #0x01	; 1
	.db #0x02	; 2
	.db #0x02	; 2
	.db #0x02	; 2
	.db #0x02	; 2
	.db #0x02	; 2
	.db #0x02	; 2
	.db #0x02	; 2
	.db #0x01	; 1
	.db #0x02	; 2
	.db #0x02	; 2
	.db #0x01	; 1
	.db #0x01	; 1
	.db #0x01	; 1
	.db #0x01	; 1
	.db #0x01	; 1
	.db #0x01	; 1
	.db #0x02	; 2
	.db #0x02	; 2
	.db #0x01	; 1
	.db #0x02	; 2
	.db #0x02	; 2
	.db #0x02	; 2
	.db #0x02	; 2
	.db #0x02	; 2
	.db #0x02	; 2
	.db #0x02	; 2
	.db #0x02	; 2
	.db #0x01	; 1
	.db #0x02	; 2
	.db #0x02	; 2
	.db #0x01	; 1
	.db #0x01	; 1
	.db #0x01	; 1
	.db #0x01	; 1
	.db #0x01	; 1
	.db #0x01	; 1
	.db #0x02	; 2
	.db #0x02	; 2
	.db #0x01	; 1
	.db #0x02	; 2
	.db #0x02	; 2
	.db #0x02	; 2
	.db #0x02	; 2
	.db #0x02	; 2
	.db #0x02	; 2
	.db #0x02	; 2
	.db #0x02	; 2
	.db #0x01	; 1
	.db #0x02	; 2
	.db #0x02	; 2
	.db #0x01	; 1
	.db #0x01	; 1
	.db #0x01	; 1
	.db #0x01	; 1
	.db #0x01	; 1
	.db #0x01	; 1
	.db #0x02	; 2
	.db #0x02	; 2
	.db #0x01	; 1
	.db #0x02	; 2
	.db #0x02	; 2
	.db #0x02	; 2
	.db #0x02	; 2
	.db #0x01	; 1
	.db #0x01	; 1
	.db #0x01	; 1
	.db #0x01	; 1
	.db #0x01	; 1
	.db #0x01	; 1
	.db #0x01	; 1
	.db #0x01	; 1
	.db #0x01	; 1
	.db #0x01	; 1
	.db #0x01	; 1
	.db #0x01	; 1
	.db #0x01	; 1
	.db #0x01	; 1
	.db #0x01	; 1
	.db #0x01	; 1
	.db #0x01	; 1
	.db #0x02	; 2
	.db #0x02	; 2
	.db #0x02	; 2
	.db #0x01	; 1
	.db #0x01	; 1
	.db #0x01	; 1
	.db #0x01	; 1
	.db #0x01	; 1
	.db #0x01	; 1
	.db #0x01	; 1
	.db #0x01	; 1
	.db #0x01	; 1
	.db #0x01	; 1
	.db #0x01	; 1
	.db #0x01	; 1
	.db #0x01	; 1
	.db #0x01	; 1
	.db #0x01	; 1
	.db #0x01	; 1
	.db #0x01	; 1
	.db #0x02	; 2
	.db #0x02	; 2
	.db #0x02	; 2
	.db #0x01	; 1
	.db #0x01	; 1
	.db #0x01	; 1
	.db #0x01	; 1
	.db #0x01	; 1
	.db #0x01	; 1
	.db #0x01	; 1
	.db #0x01	; 1
	.db #0x01	; 1
	.db #0x01	; 1
	.db #0x01	; 1
	.db #0x01	; 1
	.db #0x01	; 1
	.db #0x01	; 1
	.db #0x01	; 1
	.db #0x01	; 1
	.db #0x01	; 1
	.db #0x02	; 2
	.db #0x02	; 2
	.db #0x01	; 1
	.db #0x01	; 1
	.db #0x01	; 1
	.db #0x01	; 1
	.db #0x01	; 1
	.db #0x01	; 1
	.db #0x01	; 1
	.db #0x01	; 1
	.db #0x01	; 1
	.db #0x01	; 1
	.db #0x01	; 1
	.db #0x01	; 1
	.db #0x01	; 1
	.db #0x01	; 1
	.db #0x01	; 1
	.db #0x01	; 1
	.db #0x01	; 1
	.db #0x01	; 1
	.db #0x02	; 2
	.db #0x02	; 2
	.db #0x01	; 1
	.db #0x01	; 1
	.db #0x01	; 1
	.db #0x01	; 1
	.db #0x01	; 1
	.db #0x01	; 1
	.db #0x01	; 1
	.db #0x01	; 1
	.db #0x01	; 1
	.db #0x01	; 1
	.db #0x01	; 1
	.db #0x01	; 1
	.db #0x01	; 1
	.db #0x01	; 1
	.db #0x01	; 1
	.db #0x01	; 1
	.db #0x01	; 1
	.db #0x01	; 1
	.db #0x02	; 2
	.db #0x02	; 2
	.db #0x01	; 1
	.db #0x01	; 1
	.db #0x01	; 1
	.db #0x01	; 1
	.db #0x01	; 1
	.db #0x01	; 1
	.db #0x01	; 1
	.db #0x01	; 1
	.db #0x01	; 1
	.db #0x01	; 1
	.db #0x01	; 1
	.db #0x01	; 1
	.db #0x01	; 1
	.db #0x01	; 1
	.db #0x01	; 1
	.db #0x01	; 1
	.db #0x01	; 1
	.db #0x01	; 1
__xinit__MapTeste3:
	.db #0x09	; 9
	.db #0x09	; 9
	.db #0x09	; 9
	.db #0x09	; 9
	.db #0x09	; 9
	.db #0x09	; 9
	.db #0x09	; 9
	.db #0x09	; 9
	.db #0x09	; 9
	.db #0x09	; 9
	.db #0x09	; 9
	.db #0x09	; 9
	.db #0x09	; 9
	.db #0x09	; 9
	.db #0x09	; 9
	.db #0x09	; 9
	.db #0x09	; 9
	.db #0x09	; 9
	.db #0x09	; 9
	.db #0x09	; 9
	.db #0x09	; 9
	.db #0x09	; 9
	.db #0x09	; 9
	.db #0x09	; 9
	.db #0x09	; 9
	.db #0x09	; 9
	.db #0x09	; 9
	.db #0x09	; 9
	.db #0x09	; 9
	.db #0x09	; 9
	.db #0x09	; 9
	.db #0x09	; 9
	.db #0x09	; 9
	.db #0x09	; 9
	.db #0x09	; 9
	.db #0x09	; 9
	.db #0x09	; 9
	.db #0x09	; 9
	.db #0x09	; 9
	.db #0x09	; 9
	.db #0x09	; 9
	.db #0x09	; 9
	.db #0x02	; 2
	.db #0x04	; 4
	.db #0x04	; 4
	.db #0x04	; 4
	.db #0x04	; 4
	.db #0x04	; 4
	.db #0x04	; 4
	.db #0x04	; 4
	.db #0x04	; 4
	.db #0x04	; 4
	.db #0x04	; 4
	.db #0x04	; 4
	.db #0x04	; 4
	.db #0x04	; 4
	.db #0x04	; 4
	.db #0x01	; 1
	.db #0x09	; 9
	.db #0x09	; 9
	.db #0x09	; 9
	.db #0x09	; 9
	.db #0x08	; 8
	.db #0x00	; 0
	.db #0x15	; 21
	.db #0x15	; 21
	.db #0x15	; 21
	.db #0x15	; 21
	.db #0x15	; 21
	.db #0x15	; 21
	.db #0x15	; 21
	.db #0x00	; 0
	.db #0x00	; 0
	.db #0x00	; 0
	.db #0x00	; 0
	.db #0x00	; 0
	.db #0x00	; 0
	.db #0x07	; 7
	.db #0x09	; 9
	.db #0x09	; 9
	.db #0x09	; 9
	.db #0x09	; 9
	.db #0x08	; 8
	.db #0x00	; 0
	.db #0x15	; 21
	.db #0x15	; 21
	.db #0x15	; 21
	.db #0x15	; 21
	.db #0x15	; 21
	.db #0x15	; 21
	.db #0x15	; 21
	.db #0x00	; 0
	.db #0x00	; 0
	.db #0x00	; 0
	.db #0x00	; 0
	.db #0x00	; 0
	.db #0x00	; 0
	.db #0x07	; 7
	.db #0x09	; 9
	.db #0x09	; 9
	.db #0x09	; 9
	.db #0x09	; 9
	.db #0x08	; 8
	.db #0x00	; 0
	.db #0x15	; 21
	.db #0x15	; 21
	.db #0x15	; 21
	.db #0x15	; 21
	.db #0x15	; 21
	.db #0x15	; 21
	.db #0x15	; 21
	.db #0x00	; 0
	.db #0x00	; 0
	.db #0x00	; 0
	.db #0x00	; 0
	.db #0x00	; 0
	.db #0x00	; 0
	.db #0x07	; 7
	.db #0x09	; 9
	.db #0x09	; 9
	.db #0x09	; 9
	.db #0x09	; 9
	.db #0x08	; 8
	.db #0x00	; 0
	.db #0x15	; 21
	.db #0x15	; 21
	.db #0x0a	; 10
	.db #0x0b	; 11
	.db #0x0c	; 12
	.db #0x0e	; 14
	.db #0x15	; 21
	.db #0x15	; 21
	.db #0x00	; 0
	.db #0x00	; 0
	.db #0x00	; 0
	.db #0x00	; 0
	.db #0x00	; 0
	.db #0x07	; 7
	.db #0x09	; 9
	.db #0x09	; 9
	.db #0x09	; 9
	.db #0x09	; 9
	.db #0x08	; 8
	.db #0x00	; 0
	.db #0x15	; 21
	.db #0x15	; 21
	.db #0x15	; 21
	.db #0x15	; 21
	.db #0x15	; 21
	.db #0x15	; 21
	.db #0x0d	; 13
	.db #0x0b	; 11
	.db #0x10	; 16
	.db #0x0f	; 15
	.db #0x0d	; 13
	.db #0x00	; 0
	.db #0x00	; 0
	.db #0x07	; 7
	.db #0x09	; 9
	.db #0x09	; 9
	.db #0x09	; 9
	.db #0x09	; 9
	.db #0x08	; 8
	.db #0x00	; 0
	.db #0x15	; 21
	.db #0x00	; 0
	.db #0x15	; 21
	.db #0x15	; 21
	.db #0x15	; 21
	.db #0x15	; 21
	.db #0x15	; 21
	.db #0x00	; 0
	.db #0x00	; 0
	.db #0x00	; 0
	.db #0x00	; 0
	.db #0x00	; 0
	.db #0x00	; 0
	.db #0x07	; 7
	.db #0x09	; 9
	.db #0x09	; 9
	.db #0x09	; 9
	.db #0x09	; 9
	.db #0x08	; 8
	.db #0x00	; 0
	.db #0x15	; 21
	.db #0x15	; 21
	.db #0x15	; 21
	.db #0x15	; 21
	.db #0x15	; 21
	.db #0x15	; 21
	.db #0x15	; 21
	.db #0x15	; 21
	.db #0x15	; 21
	.db #0x15	; 21
	.db #0x15	; 21
	.db #0x15	; 21
	.db #0x15	; 21
	.db #0x07	; 7
	.db #0x09	; 9
	.db #0x09	; 9
	.db #0x09	; 9
	.db #0x09	; 9
	.db #0x08	; 8
	.db #0x00	; 0
	.db #0x00	; 0
	.db #0x0a	; 10
	.db #0x11	; 17
	.db #0x12	; 18
	.db #0x0d	; 13
	.db #0x0d	; 13
	.db #0x00	; 0
	.db #0x0d	; 13
	.db #0x13	; 19
	.db #0x14	; 20
	.db #0x11	; 17
	.db #0x13	; 19
	.db #0x15	; 21
	.db #0x07	; 7
	.db #0x09	; 9
	.db #0x09	; 9
	.db #0x09	; 9
	.db #0x09	; 9
	.db #0x08	; 8
	.db #0x00	; 0
	.db #0x00	; 0
	.db #0x00	; 0
	.db #0x00	; 0
	.db #0x00	; 0
	.db #0x00	; 0
	.db #0x00	; 0
	.db #0x00	; 0
	.db #0x00	; 0
	.db #0x00	; 0
	.db #0x00	; 0
	.db #0x15	; 21
	.db #0x15	; 21
	.db #0x15	; 21
	.db #0x07	; 7
	.db #0x09	; 9
	.db #0x09	; 9
	.db #0x09	; 9
	.db #0x09	; 9
	.db #0x08	; 8
	.db #0x00	; 0
	.db #0x00	; 0
	.db #0x00	; 0
	.db #0x00	; 0
	.db #0x00	; 0
	.db #0x00	; 0
	.db #0x00	; 0
	.db #0x00	; 0
	.db #0x00	; 0
	.db #0x00	; 0
	.db #0x00	; 0
	.db #0x00	; 0
	.db #0x00	; 0
	.db #0x00	; 0
	.db #0x07	; 7
	.db #0x09	; 9
	.db #0x09	; 9
	.db #0x09	; 9
	.db #0x09	; 9
	.db #0x08	; 8
	.db #0x00	; 0
	.db #0x00	; 0
	.db #0x00	; 0
	.db #0x00	; 0
	.db #0x00	; 0
	.db #0x00	; 0
	.db #0x00	; 0
	.db #0x00	; 0
	.db #0x00	; 0
	.db #0x00	; 0
	.db #0x00	; 0
	.db #0x00	; 0
	.db #0x00	; 0
	.db #0x00	; 0
	.db #0x07	; 7
	.db #0x09	; 9
	.db #0x09	; 9
	.db #0x09	; 9
	.db #0x09	; 9
	.db #0x08	; 8
	.db #0x00	; 0
	.db #0x00	; 0
	.db #0x00	; 0
	.db #0x00	; 0
	.db #0x00	; 0
	.db #0x00	; 0
	.db #0x00	; 0
	.db #0x00	; 0
	.db #0x00	; 0
	.db #0x00	; 0
	.db #0x00	; 0
	.db #0x00	; 0
	.db #0x00	; 0
	.db #0x00	; 0
	.db #0x07	; 7
	.db #0x09	; 9
	.db #0x09	; 9
	.db #0x09	; 9
	.db #0x09	; 9
	.db #0x05	; 5
	.db #0x03	; 3
	.db #0x03	; 3
	.db #0x03	; 3
	.db #0x03	; 3
	.db #0x03	; 3
	.db #0x03	; 3
	.db #0x03	; 3
	.db #0x03	; 3
	.db #0x03	; 3
	.db #0x03	; 3
	.db #0x03	; 3
	.db #0x03	; 3
	.db #0x03	; 3
	.db #0x03	; 3
	.db #0x06	; 6
	.db #0x09	; 9
	.db #0x09	; 9
	.db #0x09	; 9
	.db #0x09	; 9
	.db #0x09	; 9
	.db #0x09	; 9
	.db #0x09	; 9
	.db #0x09	; 9
	.db #0x09	; 9
	.db #0x09	; 9
	.db #0x09	; 9
	.db #0x09	; 9
	.db #0x09	; 9
	.db #0x09	; 9
	.db #0x09	; 9
	.db #0x09	; 9
	.db #0x09	; 9
	.db #0x09	; 9
	.db #0x09	; 9
	.db #0x09	; 9
	.db #0x09	; 9
	.db #0x09	; 9
	.db #0x09	; 9
	.db #0x09	; 9
	.db #0x09	; 9
	.db #0x09	; 9
	.db #0x09	; 9
	.db #0x09	; 9
	.db #0x09	; 9
	.db #0x09	; 9
	.db #0x09	; 9
	.db #0x09	; 9
	.db #0x09	; 9
	.db #0x09	; 9
	.db #0x09	; 9
	.db #0x09	; 9
	.db #0x09	; 9
	.db #0x09	; 9
	.db #0x09	; 9
	.db #0x09	; 9
	.db #0x09	; 9
	.db #0x09	; 9
	.area _CABS (ABS)
